target datalayout = "e-m:e-p270:32:32-p271:32:32-p272:64:64-i64:64-i128:128-f80:128-n8:16:32:64-S128"
target triple = "x86_64-pc-linux-gnu"

%struct.zskiplistNode = type { ptr, double, ptr, [0 x %struct.zskiplistLevel] }
%struct.zskiplistLevel = type { ptr, i64 }
%struct.zskiplist = type { ptr, ptr, i64, i32 }

; Function Attrs: nounwind uwtable
define dso_local ptr @zslCreateNode(i32 noundef %0, double noundef %1, ptr noundef %2) #0 {
  %4 = alloca i32, align 4
  %5 = alloca double, align 8
  %6 = alloca ptr, align 8
  %7 = alloca ptr, align 8
  store i32 %0, ptr %4, align 4, !tbaa !5
  store double %1, ptr %5, align 8, !tbaa !9
  store ptr %2, ptr %6, align 8, !tbaa !11
  call void @llvm.lifetime.start.p0(i64 8, ptr %7) #12
  %8 = load i32, ptr %4, align 4, !tbaa !5
  %9 = sext i32 %8 to i64
  %10 = mul i64 %9, 16
  %11 = add i64 24, %10
  %12 = call noalias ptr @zmalloc(i64 noundef %11) #13
  store ptr %12, ptr %7, align 8, !tbaa !14
  %13 = load double, ptr %5, align 8, !tbaa !9
  %14 = load ptr, ptr %7, align 8, !tbaa !14
  %15 = getelementptr inbounds nuw %struct.zskiplistNode, ptr %14, i32 0, i32 1
  store double %13, ptr %15, align 8, !tbaa !9
  %16 = load ptr, ptr %6, align 8, !tbaa !11
  %17 = load ptr, ptr %7, align 8, !tbaa !14
  %18 = getelementptr inbounds nuw %struct.zskiplistNode, ptr %17, i32 0, i32 0
  store ptr %16, ptr %18, align 8, !tbaa !11
  %19 = load ptr, ptr %7, align 8, !tbaa !14
  call void @llvm.lifetime.end.p0(i64 8, ptr %7) #12
  ret ptr %19
}

; Function Attrs: nounwind uwtable
define dso_local ptr @zslCreate() #0 {
  %1 = alloca i32, align 4
  %2 = alloca ptr, align 8
  call void @llvm.lifetime.start.p0(i64 4, ptr %1) #12
  call void @llvm.lifetime.start.p0(i64 8, ptr %2) #12
  %3 = call noalias ptr @zmalloc(i64 noundef 32) #13
  store ptr %3, ptr %2, align 8, !tbaa !16
  %4 = load ptr, ptr %2, align 8, !tbaa !16
  %5 = getelementptr inbounds nuw %struct.zskiplist, ptr %4, i32 0, i32 3
  store i32 1, ptr %5, align 8, !tbaa !18
  %6 = load ptr, ptr %2, align 8, !tbaa !16
  %7 = getelementptr inbounds nuw %struct.zskiplist, ptr %6, i32 0, i32 2
  store i64 0, ptr %7, align 8, !tbaa !21
  %8 = call ptr @zslCreateNode(i32 noundef 32, double noundef 0.000000e+00, ptr noundef null)
  %9 = load ptr, ptr %2, align 8, !tbaa !16
  %10 = getelementptr inbounds nuw %struct.zskiplist, ptr %9, i32 0, i32 0
  store ptr %8, ptr %10, align 8, !tbaa !22
  store i32 0, ptr %1, align 4, !tbaa !5
  br label %11

11:                                               ; preds = %31, %0
  %12 = load i32, ptr %1, align 4, !tbaa !5
  %13 = icmp slt i32 %12, 32
  br i1 %13, label %14, label %34

14:                                               ; preds = %11
  %15 = load ptr, ptr %2, align 8, !tbaa !16
  %16 = getelementptr inbounds nuw %struct.zskiplist, ptr %15, i32 0, i32 0
  %17 = load ptr, ptr %16, align 8, !tbaa !22
  %18 = getelementptr inbounds nuw %struct.zskiplistNode, ptr %17, i32 0, i32 3
  %19 = load i32, ptr %1, align 4, !tbaa !5
  %20 = sext i32 %19 to i64
  %21 = getelementptr inbounds [0 x %struct.zskiplistLevel], ptr %18, i64 0, i64 %20
  %22 = getelementptr inbounds nuw %struct.zskiplistLevel, ptr %21, i32 0, i32 0
  store ptr null, ptr %22, align 8, !tbaa !23
  %23 = load ptr, ptr %2, align 8, !tbaa !16
  %24 = getelementptr inbounds nuw %struct.zskiplist, ptr %23, i32 0, i32 0
  %25 = load ptr, ptr %24, align 8, !tbaa !22
  %26 = getelementptr inbounds nuw %struct.zskiplistNode, ptr %25, i32 0, i32 3
  %27 = load i32, ptr %1, align 4, !tbaa !5
  %28 = sext i32 %27 to i64
  %29 = getelementptr inbounds [0 x %struct.zskiplistLevel], ptr %26, i64 0, i64 %28
  %30 = getelementptr inbounds nuw %struct.zskiplistLevel, ptr %29, i32 0, i32 1
  store i64 0, ptr %30, align 8, !tbaa !25
  br label %31

31:                                               ; preds = %14
  %32 = load i32, ptr %1, align 4, !tbaa !5
  %33 = add nsw i32 %32, 1
  store i32 %33, ptr %1, align 4, !tbaa !5
  br label %11, !llvm.loop !26

34:                                               ; preds = %11
  %35 = load ptr, ptr %2, align 8, !tbaa !16
  %36 = getelementptr inbounds nuw %struct.zskiplist, ptr %35, i32 0, i32 0
  %37 = load ptr, ptr %36, align 8, !tbaa !22
  %38 = getelementptr inbounds nuw %struct.zskiplistNode, ptr %37, i32 0, i32 2
  store ptr null, ptr %38, align 8, !tbaa !14
  %39 = load ptr, ptr %2, align 8, !tbaa !16
  %40 = getelementptr inbounds nuw %struct.zskiplist, ptr %39, i32 0, i32 1
  store ptr null, ptr %40, align 8, !tbaa !28
  %41 = load ptr, ptr %2, align 8, !tbaa !16
  call void @llvm.lifetime.end.p0(i64 8, ptr %2) #12
  call void @llvm.lifetime.end.p0(i64 4, ptr %1) #12
  ret ptr %41
}