; Function Attrs: nounwind uwtable
define dso_local noalias noundef ptr @zslCreate() local_unnamed_addr #0 {
  %1 = tail call noalias dereferenceable_or_null(32) ptr @zmalloc(i64 noundef 32) #17
  %2 = getelementptr inbounds nuw i8, ptr %1, i64 24
  store i32 1, ptr %2, align 8, !tbaa !12
  %3 = getelementptr inbounds nuw i8, ptr %1, i64 16
  store i64 0, ptr %3, align 8, !tbaa !17
  %4 = tail call noalias noundef dereferenceable_or_null(536) ptr @zmalloc(i64 noundef 536) #17
  tail call void @llvm.memset.p0.i64(ptr noundef nonnull align 8 dereferenceable(16) %4, i8 0, i64 16, i1 false)
  store ptr %4, ptr %1, align 8, !tbaa !18
  %5 = getelementptr inbounds nuw i8, ptr %4, i64 16
  %6 = getelementptr inbounds nuw i8, ptr %1, i64 8
  tail call void @llvm.memset.p0.i64(ptr noundef nonnull align 8 dereferenceable(520) %5, i8 0, i64 520, i1 false)
  store ptr null, ptr %6, align 8, !tbaa !19
  ret ptr %1
}